target datalayout = "e-m:e-p270:32:32-p271:32:32-p272:64:64-i64:64-i128:128-f80:128-n8:16:32:64-S128"
target triple = "x86_64-pc-linux-gnu"

%struct.stat = type { i64, i64, i64, i32, i32, i32, i32, i64, i64, i64, i64, %struct.timespec, %struct.timespec, %struct.timespec, [3 x i64] }
%struct.timespec = type { i64, i64 }
%struct.dirent = type { i64, i64, i16, i8, [256 x i8] }

@.str.7 = private unnamed_addr constant [2 x i8] c".\00", align 1
@.str.8 = private unnamed_addr constant [3 x i8] c"..\00", align 1

; Function Attrs: inlinehint nounwind willreturn memory(read) uwtable
define available_externally i32 @atoi(ptr noundef nonnull %0) #10 {
  %2 = alloca ptr, align 8
  store ptr %0, ptr %2, align 8, !tbaa !3
  %3 = load ptr, ptr %2, align 8, !tbaa !3
  %4 = call i64 @strtol(ptr noundef %3, ptr noundef null, i32 noundef 10) #14
  %5 = trunc i64 %4 to i32
  ret i32 %5
}

; Function Attrs: nounwind uwtable
define internal i32 @hwloc_linux_get_proc_tids(ptr noundef %0, ptr noundef %1, ptr noundef %2) #0 {
  %4 = alloca i32, align 4
  %5 = alloca ptr, align 8
  %6 = alloca ptr, align 8
  %7 = alloca ptr, align 8
  %8 = alloca ptr, align 8
  %9 = alloca i32, align 4
  %10 = alloca i32, align 4
  %11 = alloca ptr, align 8
  %12 = alloca %struct.stat, align 8
  %13 = alloca i32, align 4
  %14 = alloca ptr, align 8
  store ptr %0, ptr %5, align 8, !tbaa !98
  store ptr %1, ptr %6, align 8, !tbaa !91
  store ptr %2, ptr %7, align 8, !tbaa !101
  call void @llvm.lifetime.start.p0(i64 8, ptr %8) #14
  call void @llvm.lifetime.start.p0(i64 4, ptr %9) #14
  store i32 0, ptr %9, align 4, !tbaa !10
  call void @llvm.lifetime.start.p0(i64 4, ptr %10) #14
  store i32 32, ptr %10, align 4, !tbaa !10
  call void @llvm.lifetime.start.p0(i64 8, ptr %11) #14
  call void @llvm.lifetime.start.p0(i64 144, ptr %12) #14
  %15 = load ptr, ptr %5, align 8, !tbaa !98
  %16 = call i32 @dirfd(ptr noundef %15) #14
  %17 = call i32 @fstat(i32 noundef %16, ptr noundef %12) #14
  %18 = icmp eq i32 %17, 0
  br i1 %18, label %19, label %23

19:                                               ; preds = %3
  %20 = getelementptr inbounds nuw %struct.stat, ptr %12, i32 0, i32 2
  %21 = load i64, ptr %20, align 8, !tbaa !103
  %22 = trunc i64 %21 to i32
  store i32 %22, ptr %10, align 4, !tbaa !10
  br label %23

23:                                               ; preds = %19, %3
  %24 = load i32, ptr %10, align 4, !tbaa !10
  %25 = zext i32 %24 to i64
  %26 = mul i64 %25, 4
  %27 = call noalias ptr @malloc(i64 noundef %26) #15
  store ptr %27, ptr %11, align 8, !tbaa !91
  %28 = load ptr, ptr %11, align 8, !tbaa !91
  %29 = icmp ne ptr %28, null
  br i1 %29, label %32, label %30

30:                                               ; preds = %23
  %31 = call ptr @__errno_location() #18
  store i32 12, ptr %31, align 4, !tbaa !10
  store i32 -1, ptr %4, align 4
  store i32 1, ptr %13, align 4
  br label %88

32:                                               ; preds = %23
  %33 = load ptr, ptr %5, align 8, !tbaa !98
  call void @rewinddir(ptr noundef %33) #14
  br label %34

34:                                               ; preds = %73, %72, %32
  %35 = load ptr, ptr %5, align 8, !tbaa !98
  %36 = call ptr @readdir(ptr noundef %35)
  store ptr %36, ptr %8, align 8, !tbaa !106
  %37 = icmp ne ptr %36, null
  br i1 %37, label %38, label %83

38:                                               ; preds = %34
  %39 = load i32, ptr %9, align 4, !tbaa !10
  %40 = load i32, ptr %10, align 4, !tbaa !10
  %41 = icmp eq i32 %39, %40
  br i1 %41, label %42, label %60

42:                                               ; preds = %38
  call void @llvm.lifetime.start.p0(i64 8, ptr %14) #14
  %43 = load i32, ptr %10, align 4, !tbaa !10
  %44 = add i32 %43, 8
  store i32 %44, ptr %10, align 4, !tbaa !10
  %45 = load ptr, ptr %11, align 8, !tbaa !91
  %46 = load i32, ptr %10, align 4, !tbaa !10
  %47 = zext i32 %46 to i64
  %48 = mul i64 %47, 4
  %49 = call ptr @realloc(ptr noundef %45, i64 noundef %48) #16
  store ptr %49, ptr %14, align 8, !tbaa !91
  %50 = load ptr, ptr %14, align 8, !tbaa !91
  %51 = icmp ne ptr %50, null
  br i1 %51, label %55, label %52

52:                                               ; preds = %42
  %53 = load ptr, ptr %11, align 8, !tbaa !91
  call void @free(ptr noundef %53) #14
  %54 = call ptr @__errno_location() #18
  store i32 12, ptr %54, align 4, !tbaa !10
  store i32 -1, ptr %4, align 4
  store i32 1, ptr %13, align 4
  br label %57

55:                                               ; preds = %42
  %56 = load ptr, ptr %14, align 8, !tbaa !91
  store ptr %56, ptr %11, align 8, !tbaa !91
  store i32 0, ptr %13, align 4
  br label %57

57:                                               ; preds = %55, %52
  call void @llvm.lifetime.end.p0(i64 8, ptr %14) #14
  %58 = load i32, ptr %13, align 4
  switch i32 %58, label %88 [
    i32 0, label %59
  ]

59:                                               ; preds = %57
  br label %60

60:                                               ; preds = %59, %38
  %61 = load ptr, ptr %8, align 8, !tbaa !106
  %62 = getelementptr inbounds nuw %struct.dirent, ptr %61, i32 0, i32 4
  %63 = getelementptr inbounds [256 x i8], ptr %62, i64 0, i64 0
  %64 = call i32 @strcmp(ptr noundef %63, ptr noundef @.str.7) #17
  %65 = icmp ne i32 %64, 0
  br i1 %65, label %66, label %72

66:                                               ; preds = %60
  %67 = load ptr, ptr %8, align 8, !tbaa !106
  %68 = getelementptr inbounds nuw %struct.dirent, ptr %67, i32 0, i32 4
  %69 = getelementptr inbounds [256 x i8], ptr %68, i64 0, i64 0
  %70 = call i32 @strcmp(ptr noundef %69, ptr noundef @.str.8) #17
  %71 = icmp ne i32 %70, 0
  br i1 %71, label %73, label %72

72:                                               ; preds = %66, %60
  br label %34, !llvm.loop !108

73:                                               ; preds = %66
  %74 = load ptr, ptr %8, align 8, !tbaa !106
  %75 = getelementptr inbounds nuw %struct.dirent, ptr %74, i32 0, i32 4
  %76 = getelementptr inbounds [256 x i8], ptr %75, i64 0, i64 0
  %77 = call i32 @atoi(ptr noundef %76) #17
  %78 = load ptr, ptr %11, align 8, !tbaa !91
  %79 = load i32, ptr %9, align 4, !tbaa !10
  %80 = add i32 %79, 1
  store i32 %80, ptr %9, align 4, !tbaa !10
  %81 = zext i32 %79 to i64
  %82 = getelementptr inbounds nuw i32, ptr %78, i64 %81
  store i32 %77, ptr %82, align 4, !tbaa !10
  br label %34, !llvm.loop !108

83:                                               ; preds = %34
  %84 = load i32, ptr %9, align 4, !tbaa !10
  %85 = load ptr, ptr %6, align 8, !tbaa !91
  store i32 %84, ptr %85, align 4, !tbaa !10
  %86 = load ptr, ptr %11, align 8, !tbaa !91
  %87 = load ptr, ptr %7, align 8, !tbaa !101
  store ptr %86, ptr %87, align 8, !tbaa !91
  store i32 0, ptr %4, align 4
  store i32 1, ptr %13, align 4
  br label %88

88:                                               ; preds = %83, %57, %30
  call void @llvm.lifetime.end.p0(i64 144, ptr %12) #14
  call void @llvm.lifetime.end.p0(i64 8, ptr %11) #14
  call void @llvm.lifetime.end.p0(i64 4, ptr %10) #14
  call void @llvm.lifetime.end.p0(i64 4, ptr %9) #14
  call void @llvm.lifetime.end.p0(i64 8, ptr %8) #14
  %89 = load i32, ptr %4, align 4
  ret i32 %89
}