; Function Attrs: nounwind uwtable
define internal fastcc range(i32 -1, 1) i32 @hwloc_linux_get_proc_tids(ptr noundef nonnull %0, ptr noundef nonnull writeonly captures(none) %1, ptr noundef nonnull writeonly captures(none) %2) unnamed_addr #0 {
  %4 = alloca %struct.stat, align 8
  call void @llvm.lifetime.start.p0(i64 144, ptr nonnull %4) #27
  %5 = tail call i32 @dirfd(ptr noundef nonnull %0) #27
  %6 = call i32 @fstat(i32 noundef %5, ptr noundef nonnull %4) #27
  %7 = icmp eq i32 %6, 0
  %8 = getelementptr inbounds nuw i8, ptr %4, i64 16
  %9 = load i64, ptr %8, align 8
  %10 = trunc i64 %9 to i32
  %.027 = select i1 %7, i32 %10, i32 32
  %11 = zext i32 %.027 to i64
  %12 = shl nuw nsw i64 %11, 2
  %13 = tail call noalias ptr @malloc(i64 noundef %12) #28
  %.not = icmp eq ptr %13, null
  br i1 %.not, label %14, label %16

14:                                               ; preds = %3
  %15 = tail call ptr @__errno_location() #31
  store i32 12, ptr %15, align 4, !tbaa !3
  br label %47

16:                                               ; preds = %3
  tail call void @rewinddir(ptr noundef nonnull %0) #27
  %17 = tail call ptr @readdir(ptr noundef nonnull %0) #27
  %.not344652 = icmp eq ptr %17, null
  br i1 %.not344652, label %.outer._crit_edge, label %.lr.ph

.lr.ph:                                           ; preds = %16, %.outer
  %18 = phi ptr [ %46, %.outer ], [ %17, %16 ]
  %.024.ph55 = phi ptr [ %.125, %.outer ], [ %13, %16 ]
  %.128.ph54 = phi i32 [ %.229, %.outer ], [ %.027, %16 ]
  %.030.ph53 = phi i32 [ %43, %.outer ], [ 0, %16 ]
  %19 = add i32 %.030.ph53, 8
  %20 = zext i32 %19 to i64
  %21 = shl nuw nsw i64 %20, 2
  br label %22

22:                                               ; preds = %.lr.ph, %38
  %23 = phi ptr [ %18, %.lr.ph ], [ %39, %38 ]
  %.02448 = phi ptr [ %.024.ph55, %.lr.ph ], [ %.125, %38 ]
  %.12847 = phi i32 [ %.128.ph54, %.lr.ph ], [ %.229, %38 ]
  %24 = icmp eq i32 %.030.ph53, %.12847
  br i1 %24, label %25, label %sub_0

25:                                               ; preds = %22
  %26 = tail call ptr @realloc(ptr noundef %.02448, i64 noundef %21) #29
  %.not35.not = icmp eq ptr %26, null
  br i1 %.not35.not, label %.thread, label %sub_0

.thread:                                          ; preds = %25
  tail call void @free(ptr noundef %.02448) #27
  %27 = tail call ptr @__errno_location() #31
  store i32 12, ptr %27, align 4, !tbaa !3
  br label %47

sub_0:                                            ; preds = %25, %22
  %.229 = phi i32 [ %.12847, %22 ], [ %19, %25 ]
  %.125 = phi ptr [ %.02448, %22 ], [ %26, %25 ]
  %28 = getelementptr inbounds nuw i8, ptr %23, i64 19
  %29 = load i8, ptr %28, align 1
  %.not58 = icmp eq i8 %29, 46
  br i1 %.not58, label %.tail, label %.outer

.tail:                                            ; preds = %sub_0
  %30 = getelementptr inbounds nuw i8, ptr %23, i64 20
  %31 = load i8, ptr %30, align 1
  %32 = icmp eq i8 %31, 0
  br i1 %32, label %38, label %sub_141

sub_141:                                          ; preds = %.tail
  %33 = getelementptr inbounds nuw i8, ptr %23, i64 20
  %34 = load i8, ptr %33, align 1
  %.not60 = icmp eq i8 %34, 46
  br i1 %.not60, label %.tail39, label %.outer

.tail39:                                          ; preds = %sub_141
  %35 = getelementptr inbounds nuw i8, ptr %23, i64 21
  %36 = load i8, ptr %35, align 1
  %37 = icmp eq i8 %36, 0
  br i1 %37, label %38, label %.outer

38:                                               ; preds = %.tail39, %.tail
  %39 = tail call ptr @readdir(ptr noundef nonnull %0) #27
  %.not34 = icmp eq ptr %39, null
  br i1 %.not34, label %.outer._crit_edge, label %22, !llvm.loop !97

.outer:                                           ; preds = %sub_0, %sub_141, %.tail39
  %40 = getelementptr inbounds nuw i8, ptr %23, i64 19
  %41 = tail call i64 @strtol(ptr noundef nonnull captures(none) %40, ptr noundef null, i32 noundef 10) #27
  %42 = trunc i64 %41 to i32
  %43 = add i32 %.030.ph53, 1
  %44 = zext i32 %.030.ph53 to i64
  %45 = getelementptr inbounds nuw i32, ptr %.125, i64 %44
  store i32 %42, ptr %45, align 4, !tbaa !3
  %46 = tail call ptr @readdir(ptr noundef nonnull %0) #27
  %.not3446 = icmp eq ptr %46, null
  br i1 %.not3446, label %.outer._crit_edge, label %.lr.ph, !llvm.loop !97

.outer._crit_edge:                                ; preds = %.outer, %38, %16
  %.030.ph.lcssa45 = phi i32 [ 0, %16 ], [ %.030.ph53, %38 ], [ %43, %.outer ]
  %.024.lcssa = phi ptr [ %13, %16 ], [ %.125, %38 ], [ %.125, %.outer ]
  store i32 %.030.ph.lcssa45, ptr %1, align 4, !tbaa !3
  store ptr %.024.lcssa, ptr %2, align 8, !tbaa !95
  br label %47

47:                                               ; preds = %.thread, %.outer._crit_edge, %14
  %.0 = phi i32 [ 0, %.outer._crit_edge ], [ -1, %14 ], [ -1, %.thread ]
  call void @llvm.lifetime.end.p0(i64 144, ptr nonnull %4) #27
  ret i32 %.0
}